target datalayout = "e-m:e-p270:32:32-p271:32:32-p272:64:64-i64:64-i128:128-f80:128-n8:16:32:64-S128"
target triple = "x86_64-pc-linux-gnu"

%struct.gz_state = type { i32, i32, ptr, i64, i32, i32, ptr, ptr, ptr, i32, i32, i64, i64, i32, i32, i32, i32, i64, i32, i32, ptr, %struct.z_stream_s }
%struct.z_stream_s = type { ptr, i32, i64, ptr, i32, i64, ptr, ptr, ptr, ptr, ptr, i32, i64, i64 }

; Function Attrs: nounwind uwtable
define i32 @gzclose_r(ptr noundef %0) #0 {
  %2 = alloca i32, align 4
  %3 = alloca ptr, align 8
  %4 = alloca i32, align 4
  %5 = alloca ptr, align 8
  %6 = alloca i32, align 4
  store ptr %0, ptr %3, align 8, !tbaa !3
  call void @llvm.lifetime.start.p0(i64 4, ptr %4) #8
  call void @llvm.lifetime.start.p0(i64 8, ptr %5) #8
  %7 = load ptr, ptr %3, align 8, !tbaa !3
  %8 = icmp eq ptr %7, null
  br i1 %8, label %9, label %10

9:                                                ; preds = %1
  store i32 -2, ptr %2, align 4
  store i32 1, ptr %6, align 4
  br label %45

10:                                               ; preds = %1
  %11 = load ptr, ptr %3, align 8, !tbaa !3
  store ptr %11, ptr %5, align 8, !tbaa !3
  %12 = load ptr, ptr %5, align 8, !tbaa !3
  %13 = getelementptr inbounds nuw %struct.gz_state, ptr %12, i32 0, i32 0
  %14 = load i32, ptr %13, align 8, !tbaa !11
  %15 = icmp ne i32 %14, 7247
  br i1 %15, label %16, label %17

16:                                               ; preds = %10
  store i32 -2, ptr %2, align 4
  store i32 1, ptr %6, align 4
  br label %45

17:                                               ; preds = %10
  %18 = load ptr, ptr %5, align 8, !tbaa !3
  %19 = getelementptr inbounds nuw %struct.gz_state, ptr %18, i32 0, i32 4
  %20 = load i32, ptr %19, align 8, !tbaa !25
  %21 = icmp ne i32 %20, 0
  br i1 %21, label %22, label %32

22:                                               ; preds = %17
  %23 = load ptr, ptr %5, align 8, !tbaa !3
  %24 = getelementptr inbounds nuw %struct.gz_state, ptr %23, i32 0, i32 21
  %25 = call i32 @inflateEnd(ptr noundef %24)
  %26 = load ptr, ptr %5, align 8, !tbaa !3
  %27 = getelementptr inbounds nuw %struct.gz_state, ptr %26, i32 0, i32 7
  %28 = load ptr, ptr %27, align 8, !tbaa !34
  call void @free(ptr noundef %28) #8
  %29 = load ptr, ptr %5, align 8, !tbaa !3
  %30 = getelementptr inbounds nuw %struct.gz_state, ptr %29, i32 0, i32 6
  %31 = load ptr, ptr %30, align 8, !tbaa !49
  call void @free(ptr noundef %31) #8
  br label %32

32:                                               ; preds = %22, %17
  %33 = load ptr, ptr %5, align 8, !tbaa !3
  call void @gz_error(ptr noundef %33, i32 noundef 0, ptr noundef null)
  %34 = load ptr, ptr %5, align 8, !tbaa !3
  %35 = getelementptr inbounds nuw %struct.gz_state, ptr %34, i32 0, i32 2
  %36 = load ptr, ptr %35, align 8, !tbaa !59
  call void @free(ptr noundef %36) #8
  %37 = load ptr, ptr %5, align 8, !tbaa !3
  %38 = getelementptr inbounds nuw %struct.gz_state, ptr %37, i32 0, i32 1
  %39 = load i32, ptr %38, align 4, !tbaa !38
  %40 = call i32 @close(i32 noundef %39)
  store i32 %40, ptr %4, align 4, !tbaa !7
  %41 = load ptr, ptr %5, align 8, !tbaa !3
  call void @free(ptr noundef %41) #8
  %42 = load i32, ptr %4, align 4, !tbaa !7
  %43 = icmp ne i32 %42, 0
  %44 = select i1 %43, i32 -1, i32 0
  store i32 %44, ptr %2, align 4
  store i32 1, ptr %6, align 4
  br label %45

45:                                               ; preds = %32, %16, %9
  call void @llvm.lifetime.end.p0(i64 8, ptr %5) #8
  call void @llvm.lifetime.end.p0(i64 4, ptr %4) #8
  %46 = load i32, ptr %2, align 4
  ret i32 %46
}