; Function Attrs: nounwind uwtable
define range(i32 -2, 1) i32 @gzclose_r(ptr noundef %0) local_unnamed_addr #0 {
  %2 = icmp eq ptr %0, null
  br i1 %2, label %22, label %3

3:                                                ; preds = %1
  %4 = load i32, ptr %0, align 8, !tbaa !3
  %.not = icmp eq i32 %4, 7247
  br i1 %.not, label %5, label %22

5:                                                ; preds = %3
  %6 = getelementptr inbounds nuw i8, ptr %0, i64 24
  %7 = load i32, ptr %6, align 8, !tbaa !25
  %.not13 = icmp eq i32 %7, 0
  br i1 %.not13, label %15, label %8

8:                                                ; preds = %5
  %9 = getelementptr inbounds nuw i8, ptr %0, i64 120
  %10 = tail call i32 @inflateEnd(ptr noundef nonnull %9) #12
  %11 = getelementptr inbounds nuw i8, ptr %0, i64 40
  %12 = load ptr, ptr %11, align 8, !tbaa !32
  tail call void @free(ptr noundef %12) #12
  %13 = getelementptr inbounds nuw i8, ptr %0, i64 32
  %14 = load ptr, ptr %13, align 8, !tbaa !33
  tail call void @free(ptr noundef %14) #12
  br label %15

15:                                               ; preds = %8, %5
  tail call void @gz_error(ptr noundef nonnull %0, i32 noundef 0, ptr noundef null) #12
  %16 = getelementptr inbounds nuw i8, ptr %0, i64 8
  %17 = load ptr, ptr %16, align 8, !tbaa !50
  tail call void @free(ptr noundef %17) #12
  %18 = getelementptr inbounds nuw i8, ptr %0, i64 4
  %19 = load i32, ptr %18, align 4, !tbaa !26
  %20 = tail call i32 @close(i32 noundef %19) #12
  tail call void @free(ptr noundef nonnull %0) #12
  %.not14 = icmp ne i32 %20, 0
  %21 = sext i1 %.not14 to i32
  br label %22

22:                                               ; preds = %3, %1, %15
  %.0 = phi i32 [ %21, %15 ], [ -2, %1 ], [ -2, %3 ]
  ret i32 %.0
}